(dp0
Vengine
p1
S'pdflatex'
p2
sVpackages
p3
c__builtin__
set
p4
((lp5
Vgeometry
p6
aVgraphicx
p7
aVnatbib
p8
aVverbatim
p9
aVtimes
p10
atp11
Rp12
sVfiles_with_guttermarks
p13
g4
((lp14
V/Users/deshawn/Drive/CodeSamples/MatLab/MATweave/MATweave.tex
p15
aS'MATweave.tex'
p16
atp17
Rp18
sVsynctex
p19
I01
s.