(dp0
Vengine
p1
S'pdflatex'
p2
sVpackages
p3
c__builtin__
set
p4
((lp5
Vtikz
p6
aVmathptmx
p7
aVapacite
p8
aVgeometry
p9
aVgraphicx
p10
aVamsmath
p11
aVfontenc
p12
aVinputenc
p13
aVparskip
p14
atp15
Rp16
sVfiles_with_guttermarks
p17
g4
((lp18
V/Users/deshawn/Drive/NYU/Classes/17Fall/BayesModeling/Project/presentation/figure/./model.tex
p19
aV/Users/deshawn/Drive/NYU/Classes/17Fall/BayesModeling/Project/presentation/figure/model.tex
p20
aS'model.tex'
p21
atp22
Rp23
sVsynctex
p24
I01
s.