(dp0
Vengine
p1
S'pdflatex'
p2
sVpackages
p3
c__builtin__
set
p4
((lp5
Vtikz
p6
atp7
Rp8
sVfiles_with_guttermarks
p9
g4
((lp10
S'Poster'
p11
aS'/Users/deshawnsambrano/Desktop/LaTeXPoster/Poster'
p12
atp13
Rp14
sVsynctex
p15
I01
s.