(dp0
Vengine
p1
S'pdflatex'
p2
sVpackages
p3
c__builtin__
set
p4
((lp5
Vhyperref
p6
aVapplekeys
p7
atp8
Rp9
sVfiles_with_guttermarks
p10
g4
((lp11
V/Users/deshawnsambrano/Desktop/MyFirstDir/./AppleKeyTest.tex
p12
aS'AppleKeyTest.tex'
p13
atp14
Rp15
sVsynctex
p16
I01
s.