(dp0
Vengine
p1
S'pdflatex'
p2
sVpackages
p3
c__builtin__
set
p4
((lp5
Vhyperref
p6
aVmenukeys
p7
atp8
Rp9
sVfiles_with_guttermarks
p10
g4
((lp11
S'untitled.tex'
p12
aV/usr/local/texlive/2016/texmf-dist/tex/latex/fontspec/fontspec.sty
p13
aV/Users/deshawnsambrano/Desktop/MyFirstDir/./untitled.tex
p14
atp15
Rp16
sVsynctex
p17
I01
s.