(dp0
Vengine
p1
S'pdflatex'
p2
sVpackages
p3
c__builtin__
set
p4
((lp5
Vtikz
p6
aVcalc
p7
aVverbatim
p8
aVamsmath
p9
aVmultimedia
p10
aVtimes
p11
aVcleveref
p12
aVlcg
p13
aVmedia9
p14
aVinputenc
p15
aVamssymb
p16
atp17
Rp18
sVfiles_with_guttermarks
p19
g4
((lp20
V/Users/deshawn/Drive/NYU/Classes/17Fall/BayesModeling/Project/Presentation/./presentation.tex
p21
aS'presentation.tex'
p22
atp23
Rp24
sVsynctex
p25
I01
s.